target datalayout = "e-m:e-p270:32:32-p271:32:32-p272:64:64-i64:64-i128:128-f80:128-n8:16:32:64-S128"
target triple = "x86_64-pc-linux-gnu"

%struct.Agobj_s = type { %struct.Agtag_s, ptr }
%struct.Agtag_s = type { i32, i64 }
%struct.Agraphinfo_t = type { %struct.Agrec_s, ptr, ptr, %struct.boxf, [4 x %struct.pointf_s], i8, i8, i8, i8, i32, double, double, i16, ptr, ptr, ptr, ptr, i32, ptr, ptr, ptr, ptr, i16, i16, i32, ptr, ptr, ptr, ptr, ptr, i32, ptr, ptr, %struct.nlist_t, ptr, ptr, i32, i32, i8, i8, i32, i32, i32, ptr, ptr, ptr, ptr, i8, i8, i8, i8, i8 }
%struct.Agrec_s = type { ptr, ptr }
%struct.boxf = type { %struct.pointf_s, %struct.pointf_s }
%struct.pointf_s = type { double, double }
%struct.nlist_t = type { ptr, i64 }

@stderr = external global ptr, align 8
@.str.9 = private unnamed_addr constant [58 x i8] c"integer overflow when trying to allocate %zu * %zu bytes\0A\00", align 1
@.str.10 = private unnamed_addr constant [49 x i8] c"out of memory when trying to allocate %zu bytes\0A\00", align 1

; Function Attrs: inlinehint nounwind uwtable
define internal ptr @gv_realloc(ptr noundef %0, i64 noundef %1, i64 noundef %2) #3 {
  %4 = alloca ptr, align 8
  %5 = alloca ptr, align 8
  %6 = alloca i64, align 8
  %7 = alloca i64, align 8
  %8 = alloca ptr, align 8
  store ptr %0, ptr %5, align 8, !tbaa !114
  store i64 %1, ptr %6, align 8, !tbaa !47
  store i64 %2, ptr %7, align 8, !tbaa !47
  %9 = load i64, ptr %7, align 8, !tbaa !47
  %10 = icmp eq i64 %9, 0
  br i1 %10, label %11, label %13

11:                                               ; preds = %3
  %12 = load ptr, ptr %5, align 8, !tbaa !114
  call void @free(ptr noundef %12) #13
  store ptr null, ptr %4, align 8
  br label %36

13:                                               ; preds = %3
  call void @llvm.lifetime.start.p0(i64 8, ptr %8) #13
  %14 = load ptr, ptr %5, align 8, !tbaa !114
  %15 = load i64, ptr %7, align 8, !tbaa !47
  %16 = call ptr @realloc(ptr noundef %14, i64 noundef %15) #17
  store ptr %16, ptr %8, align 8, !tbaa !114
  %17 = load ptr, ptr %8, align 8, !tbaa !114
  %18 = icmp eq ptr %17, null
  br i1 %18, label %19, label %23

19:                                               ; preds = %13
  %20 = load ptr, ptr @stderr, align 8, !tbaa !56
  %21 = load i64, ptr %7, align 8, !tbaa !47
  %22 = call i32 (ptr, ptr, ...) @fprintf(ptr noundef %20, ptr noundef @.str.10, i64 noundef %21) #13
  call void @graphviz_exit(i32 noundef 1) #15
  unreachable

23:                                               ; preds = %13
  %24 = load i64, ptr %7, align 8, !tbaa !47
  %25 = load i64, ptr %6, align 8, !tbaa !47
  %26 = icmp ugt i64 %24, %25
  br i1 %26, label %27, label %34

27:                                               ; preds = %23
  %28 = load ptr, ptr %8, align 8, !tbaa !114
  %29 = load i64, ptr %6, align 8, !tbaa !47
  %30 = getelementptr inbounds nuw i8, ptr %28, i64 %29
  %31 = load i64, ptr %7, align 8, !tbaa !47
  %32 = load i64, ptr %6, align 8, !tbaa !47
  %33 = sub i64 %31, %32
  call void @llvm.memset.p0.i64(ptr align 1 %30, i8 0, i64 %33, i1 false)
  br label %34

34:                                               ; preds = %27, %23
  %35 = load ptr, ptr %8, align 8, !tbaa !114
  store ptr %35, ptr %4, align 8
  call void @llvm.lifetime.end.p0(i64 8, ptr %8) #13
  br label %36

36:                                               ; preds = %34, %11
  %37 = load ptr, ptr %4, align 8
  ret ptr %37
}

; Function Attrs: inlinehint nounwind uwtable
define internal ptr @gv_recalloc(ptr noundef %0, i64 noundef %1, i64 noundef %2, i64 noundef %3) #3 {
  %5 = alloca ptr, align 8
  %6 = alloca i64, align 8
  %7 = alloca i64, align 8
  %8 = alloca i64, align 8
  store ptr %0, ptr %5, align 8, !tbaa !114
  store i64 %1, ptr %6, align 8, !tbaa !47
  store i64 %2, ptr %7, align 8, !tbaa !47
  store i64 %3, ptr %8, align 8, !tbaa !47
  %9 = load i64, ptr %7, align 8, !tbaa !47
  %10 = load i64, ptr %8, align 8, !tbaa !47
  %11 = udiv i64 -1, %10
  %12 = icmp ugt i64 %9, %11
  br i1 %12, label %13, label %18

13:                                               ; preds = %4
  %14 = load ptr, ptr @stderr, align 8, !tbaa !56
  %15 = load i64, ptr %7, align 8, !tbaa !47
  %16 = load i64, ptr %8, align 8, !tbaa !47
  %17 = call i32 (ptr, ptr, ...) @fprintf(ptr noundef %14, ptr noundef @.str.9, i64 noundef %15, i64 noundef %16) #13
  call void @graphviz_exit(i32 noundef 1) #15
  unreachable

18:                                               ; preds = %4
  %19 = load ptr, ptr %5, align 8, !tbaa !114
  %20 = load i64, ptr %6, align 8, !tbaa !47
  %21 = load i64, ptr %8, align 8, !tbaa !47
  %22 = mul i64 %20, %21
  %23 = load i64, ptr %7, align 8, !tbaa !47
  %24 = load i64, ptr %8, align 8, !tbaa !47
  %25 = mul i64 %23, %24
  %26 = call ptr @gv_realloc(ptr noundef %19, i64 noundef %22, i64 noundef %25)
  ret ptr %26
}

; Function Attrs: nounwind uwtable
define internal i32 @make_new_cluster(ptr noundef %0, ptr noundef %1) #0 {
  %3 = alloca ptr, align 8
  %4 = alloca ptr, align 8
  %5 = alloca i32, align 4
  store ptr %0, ptr %3, align 8, !tbaa !3
  store ptr %1, ptr %4, align 8, !tbaa !3
  call void @llvm.lifetime.start.p0(i64 4, ptr %5) #13
  %6 = load ptr, ptr %3, align 8, !tbaa !3
  %7 = getelementptr inbounds nuw %struct.Agobj_s, ptr %6, i32 0, i32 1
  %8 = load ptr, ptr %7, align 8, !tbaa !10
  %9 = getelementptr inbounds nuw %struct.Agraphinfo_t, ptr %8, i32 0, i32 24
  %10 = load i32, ptr %9, align 4, !tbaa !51
  %11 = add nsw i32 %10, 1
  store i32 %11, ptr %9, align 4, !tbaa !51
  store i32 %11, ptr %5, align 4, !tbaa !45
  %12 = load ptr, ptr %3, align 8, !tbaa !3
  %13 = getelementptr inbounds nuw %struct.Agobj_s, ptr %12, i32 0, i32 1
  %14 = load ptr, ptr %13, align 8, !tbaa !10
  %15 = getelementptr inbounds nuw %struct.Agraphinfo_t, ptr %14, i32 0, i32 25
  %16 = load ptr, ptr %15, align 8, !tbaa !86
  %17 = load ptr, ptr %3, align 8, !tbaa !3
  %18 = getelementptr inbounds nuw %struct.Agobj_s, ptr %17, i32 0, i32 1
  %19 = load ptr, ptr %18, align 8, !tbaa !10
  %20 = getelementptr inbounds nuw %struct.Agraphinfo_t, ptr %19, i32 0, i32 24
  %21 = load i32, ptr %20, align 4, !tbaa !51
  %22 = sext i32 %21 to i64
  %23 = load i32, ptr %5, align 4, !tbaa !45
  %24 = add nsw i32 %23, 1
  %25 = sext i32 %24 to i64
  %26 = call ptr @gv_recalloc(ptr noundef %16, i64 noundef %22, i64 noundef %25, i64 noundef 8)
  %27 = load ptr, ptr %3, align 8, !tbaa !3
  %28 = getelementptr inbounds nuw %struct.Agobj_s, ptr %27, i32 0, i32 1
  %29 = load ptr, ptr %28, align 8, !tbaa !10
  %30 = getelementptr inbounds nuw %struct.Agraphinfo_t, ptr %29, i32 0, i32 25
  store ptr %26, ptr %30, align 8, !tbaa !86
  %31 = load ptr, ptr %4, align 8, !tbaa !3
  %32 = load ptr, ptr %3, align 8, !tbaa !3
  %33 = getelementptr inbounds nuw %struct.Agobj_s, ptr %32, i32 0, i32 1
  %34 = load ptr, ptr %33, align 8, !tbaa !10
  %35 = getelementptr inbounds nuw %struct.Agraphinfo_t, ptr %34, i32 0, i32 25
  %36 = load ptr, ptr %35, align 8, !tbaa !86
  %37 = load i32, ptr %5, align 4, !tbaa !45
  %38 = sext i32 %37 to i64
  %39 = getelementptr inbounds ptr, ptr %36, i64 %38
  store ptr %31, ptr %39, align 8, !tbaa !3
  %40 = load ptr, ptr %4, align 8, !tbaa !3
  call void @do_graph_label(ptr noundef %40)
  %41 = load i32, ptr %5, align 4, !tbaa !45
  call void @llvm.lifetime.end.p0(i64 4, ptr %5) #13
  ret i32 %41
}