; Function Attrs: nounwind uwtable
define internal fastcc void @make_new_cluster(ptr noundef readonly captures(none) %0, ptr noundef %1) unnamed_addr #0 {
  %3 = getelementptr inbounds nuw i8, ptr %0, i64 16
  %4 = load ptr, ptr %3, align 8, !tbaa !3
  %5 = getelementptr inbounds nuw i8, ptr %4, i64 236
  %6 = load i32, ptr %5, align 4, !tbaa !47
  %7 = add nsw i32 %6, 1
  store i32 %7, ptr %5, align 4, !tbaa !47
  %8 = getelementptr inbounds nuw i8, ptr %4, i64 240
  %9 = load ptr, ptr %8, align 8, !tbaa !114
  %10 = sext i32 %7 to i64
  %11 = add nsw i32 %6, 2
  %12 = sext i32 %11 to i64
  %13 = icmp slt i32 %6, -2
  br i1 %13, label %14, label %17

14:                                               ; preds = %2
  %15 = load ptr, ptr @stderr, align 8, !tbaa !80
  %16 = tail call i32 (ptr, ptr, ...) @fprintf(ptr noundef %15, ptr noundef nonnull @.str.9, i64 noundef %12, i64 noundef 8) #17
  tail call fastcc void @graphviz_exit() #18
  unreachable

17:                                               ; preds = %2
  %18 = shl nsw i64 %10, 3
  %19 = shl nuw nsw i64 %12, 3
  %20 = icmp eq i32 %11, 0
  br i1 %20, label %21, label %22

21:                                               ; preds = %17
  tail call void @free(ptr noundef %9) #15
  br label %gv_recalloc.exit

22:                                               ; preds = %17
  %23 = tail call ptr @realloc(ptr noundef %9, i64 noundef range(i64 0, -7) %19) #19
  %24 = icmp eq ptr %23, null
  br i1 %24, label %25, label %28

25:                                               ; preds = %22
  %26 = load ptr, ptr @stderr, align 8, !tbaa !80
  %27 = tail call i32 (ptr, ptr, ...) @fprintf(ptr noundef %26, ptr noundef nonnull @.str.10, i64 noundef range(i64 0, -7) %19) #17
  tail call fastcc void @graphviz_exit() #18
  unreachable

28:                                               ; preds = %22
  %29 = icmp ugt i64 %19, %18
  br i1 %29, label %30, label %gv_recalloc.exit

30:                                               ; preds = %28
  %31 = getelementptr inbounds nuw i8, ptr %23, i64 %18
  %32 = sub nuw nsw i64 %19, %18
  tail call void @llvm.memset.p0.i64(ptr noundef nonnull align 1 dereferenceable(1) %31, i8 0, i64 %32, i1 false)
  br label %gv_recalloc.exit

gv_recalloc.exit:                                 ; preds = %21, %28, %30
  %.0.i.i = phi ptr [ null, %21 ], [ %23, %30 ], [ %23, %28 ]
  %33 = load ptr, ptr %3, align 8, !tbaa !3
  %34 = getelementptr inbounds nuw i8, ptr %33, i64 240
  store ptr %.0.i.i, ptr %34, align 8, !tbaa !114
  %35 = getelementptr inbounds ptr, ptr %.0.i.i, i64 %10
  store ptr %1, ptr %35, align 8, !tbaa !115
  tail call void @do_graph_label(ptr noundef %1) #15
  ret void
}